(lp0
(lp1
(lp2
(lp3
F0.8865153784900002
aF0.29286448362530304
acnumpy.core.multiarray
scalar
p4
(cnumpy
dtype
p5
(S'f8'
p6
I0
I1
tp7
Rp8
(I3
S'<'
p9
NNNI-1
I-1
I0
tp10
bS'\xf6j\xa2\x0c\\\x9d\xa4?'
p11
tp12
Rp13
aF0.8865153784900002
aF0.29286448362530304
ag13
aa(lp14
F0.5654781803214317
aF0.2690162223876895
ag4
(g8
S'\x12\xd0EH\xe5u\xa4?'
p15
tp16
Rp17
aF0.5654781803214317
aF0.2690162223876895
ag17
aa(lp18
F0.8909582751241802
aF0.026271844165652956
ag4
(g8
S'\x03S\x02\xe6\x96\xe2\xd0?'
p19
tp20
Rp21
aF0.5654781803214317
aF0.2690162223876895
ag17
aa(lp22
F0.6044650914533876
aF0.18889894422715353
ag4
(g8
S'tF\x99y\x86\xfd\xb0?'
p23
tp24
Rp25
aF0.5654781803214317
aF0.2690162223876895
ag17
aa(lp26
F0.7295692132844631
aF0.06281826860199907
ag4
(g8
S"\x88\x81'wqi\xce?"
p27
tp28
Rp29
aF0.5654781803214317
aF0.2690162223876895
ag17
aa(lp30
F0.7884863772193885
aF0.01652659531534667
ag4
(g8
S'2\xb4\xc8\x16Mx\xd1?'
p31
tp32
Rp33
aF0.5654781803214317
aF0.2690162223876895
ag17
aa(lp34
F0.7334990618144004
aF0.18907238469216717
ag4
(g8
S'\xa4&\x94R\x87R\xb0?'
p35
tp36
Rp37
aF0.5654781803214317
aF0.2690162223876895
ag17
aa(lp38
F0.6701294329480876
aF0.10139118844487423
ag4
(g8
S'\x1fp\xd2y\xd3\x8f\xc5?'
p39
tp40
Rp41
aF0.5654781803214317
aF0.2690162223876895
ag17
aa(lp42
F0.6187043464814255
aF0.02626218744326303
ag4
(g8
S'\xfc\xa3\x08\x04\xef\xf6\xd0?'
p43
tp44
Rp45
aF0.5654781803214317
aF0.2690162223876895
ag17
aa(lp46
F0.8138019251773421
aF0.028970991472047035
ag4
(g8
S'0z_h\xa5J\xd1?'
p47
tp48
Rp49
aF0.5654781803214317
aF0.2690162223876895
ag17
aa(lp50
F0.7117873135010464
aF0.06211241689259414
ag4
(g8
S'\xaa\xfa?\xb74\x8c\xcf?'
p51
tp52
Rp53
aF0.5654781803214317
aF0.2690162223876895
ag17
aa(lp54
F0.8485978028382286
aF0.22814816407474242
ag4
(g8
S'\x18\xb0u\xe4\xbc\x91\xaa?'
p55
tp56
Rp57
aF0.5654781803214317
aF0.2690162223876895
ag17
aa(lp58
F0.9852431997162858
aF0.2071869231353166
ag4
(g8
S'\x0b\xcb\x8a\xc7\xda!\xad?'
p59
tp60
Rp61
aF0.5654781803214317
aF0.2690162223876895
ag17
aa(lp62
F0.6558213535281667
aF0.04052068213891715
ag4
(g8
S'\x15)\xdf\xa0\xd8\xe2\xd0?'
p63
tp64
Rp65
aF0.5654781803214317
aF0.2690162223876895
ag17
aa(lp66
F0.9208545460673612
aF0.033884208967173625
ag4
(g8
S'[R\xe0\xc32H\xd1?'
p67
tp68
Rp69
aF0.5654781803214317
aF0.2690162223876895
ag17
aa(lp70
F0.9140223556778977
aF0.21017464016638143
ag4
(g8
S'\nKuE\xc1\xe8\xab?'
p71
tp72
Rp73
aF0.5654781803214317
aF0.2690162223876895
ag17
aa(lp74
F0.7621866008138856
aF0.2883389797209376
ag4
(g8
S'_\xb4K\x0c))\xa3?'
p75
tp76
Rp77
aF0.7621866008138856
aF0.2883389797209376
ag77
aa(lp78
F0.6476797342341996
aF0.1865955329817169
ag4
(g8
S'\xc6\xe4\xa8\xf77i\xb2?'
p79
tp80
Rp81
aF0.7621866008138856
aF0.2883389797209376
ag77
aa(lp82
F0.5816873284631878
aF0.2413136880179368
ag4
(g8
S'\x0f\x82\xe2\xe8pI\xa6?'
p83
tp84
Rp85
aF0.7621866008138856
aF0.2883389797209376
ag77
aa(lp86
F0.88987471085971
aF0.2422498674727922
ag4
(g8
S'=D[\xf0\x8e\x8d\xa7?'
p87
tp88
Rp89
aF0.7621866008138856
aF0.2883389797209376
ag77
aa(lp90
F0.8286300891568532
aF0.01831146003722903
ag4
(g8
S'\xa2\xb5\xc1\x06\x83\x8a\xd1?'
p91
tp92
Rp93
aF0.7621866008138856
aF0.2883389797209376
ag77
aa(lp94
F0.7320265121211483
aF0.2958030227223159
ag4
(g8
S'bP\xfa\x19\xfaR\xa4?'
p95
tp96
Rp97
aF0.7621866008138856
aF0.2883389797209376
ag77
aa(lp98
F0.5718985830636681
aF0.06671586138055216
ag4
(g8
S'\xaaS.\x87\xc9\x0c\xcd?'
p99
tp100
Rp101
aF0.7621866008138856
aF0.2883389797209376
ag77
aa(lp102
F0.8144638303898377
aF0.23292134333312045
ag4
(g8
S'\x9an\xde\x08\x17\x1a\xaa?'
p103
tp104
Rp105
aF0.7621866008138856
aF0.2883389797209376
ag77
aa(lp106
F0.9565342208398434
aF0.1284036887755739
ag4
(g8
S'\xca\xb8uG&\x96\xc0?'
p107
tp108
Rp109
aF0.7621866008138856
aF0.2883389797209376
ag77
aa(lp110
F0.9010277105455693
aF0.24501725339623603
ag4
(g8
S'\x82?\t\x15.\xcd\xa6?'
p111
tp112
Rp113
aF0.7621866008138856
aF0.2883389797209376
ag77
aa(lp114
F0.5858892423705391
aF0.17003703050522212
ag4
(g8
S'\x16\x8c.i\xb5\x00\xb6?'
p115
tp116
Rp117
aF0.7621866008138856
aF0.2883389797209376
ag77
aa(lp118
F0.9062507915694296
aF0.023425055476031086
ag4
(g8
S'\x0e\xb5\x92\t\xd3Q\xd1?'
p119
tp120
Rp121
aF0.7621866008138856
aF0.2883389797209376
ag77
aa(lp122
F0.6953132818020535
aF0.11095257992809976
ag4
(g8
S'\xc3f\x10\x8c(\x17\xc2?'
p123
tp124
Rp125
aF0.7621866008138856
aF0.2883389797209376
ag77
aa(lp126
F0.815812624626396
aF0.1998467684918478
ag4
(g8
S'&\x1eu%\x17B\xae?'
p127
tp128
Rp129
aF0.7621866008138856
aF0.2883389797209376
ag77
aa(lp130
F0.8319868112118833
aF0.07333998578269371
ag4
(g8
S'\xdb\x97\xaf\x0f\xf3\x9a\xcc?'
p131
tp132
Rp133
aF0.7621866008138856
aF0.2883389797209376
ag77
aa(lp134
F0.6417761368080064
aF0.252344889402238
ag4
(g8
S'\xb6\x82\xc42\xc9\x01\xa7?'
p135
tp136
Rp137
aF0.7621866008138856
aF0.2883389797209376
ag77
aa(lp138
F0.5227706209124361
aF0.0425478110814879
ag4
(g8
S'6\x12\x97\\=\xa5\xd0?'
p139
tp140
Rp141
aF0.7621866008138856
aF0.2883389797209376
ag77
aa(lp142
F0.7771416527565469
aF0.21191017039368823
ag4
(g8
S'\x00\x8d\x0cs+F\xab?'
p143
tp144
Rp145
aF0.7621866008138856
aF0.2883389797209376
ag77
aa(lp146
F0.9340487709658283
aF0.10439021127158539
ag4
(g8
S'\xc2\xa7\x13L\xf2\x81\xc4?'
p147
tp148
Rp149
aF0.7621866008138856
aF0.2883389797209376
ag77
aa(lp150
F0.670428090916747
aF0.2527007306865913
ag4
(g8
S'o.\xec%\xf2\x8c\xa7?'
p151
tp152
Rp153
aF0.7621866008138856
aF0.2883389797209376
ag77
aa(lp154
F0.7517067334829819
aF0.12802364786048617
ag4
(g8
S'\x07]\xc9~\x0b1\xc0?'
p155
tp156
Rp157
aF0.7621866008138856
aF0.2883389797209376
ag77
aaaa(lp158
F60.48538017272949
aa.