(lp0
(lp1
(lp2
(lp3
F0.5856186444894946
aF0.26228072770710364
acnumpy.core.multiarray
scalar
p4
(cnumpy
dtype
p5
(S'f8'
p6
I0
I1
tp7
Rp8
(I3
S'<'
p9
NNNI-1
I-1
I0
tp10
bS's\x01"(d3\xa4?'
p11
tp12
Rp13
aF0.5856186444894946
aF0.26228072770710364
ag13
aa(lp14
F0.5407204292926584
aF0.008150337208037527
ag4
(g8
S'\x04\\\n\xa1Lw\xd1?'
p15
tp16
Rp17
aF0.5856186444894946
aF0.26228072770710364
ag13
aa(lp18
F0.8887311065233077
aF0.08540943668119762
ag4
(g8
S'\xf2\x1a#\x9a\xb9%\xc5?'
p19
tp20
Rp21
aF0.5856186444894946
aF0.26228072770710364
ag13
aa(lp22
F0.9130429038538284
aF0.24978455372598452
ag4
(g8
S'\x08\xe8j\x891\xc0\xa4?'
p23
tp24
Rp25
aF0.5856186444894946
aF0.26228072770710364
ag13
aa(lp26
F0.5928836668536952
aF0.06993482267090152
ag4
(g8
S'wy\xdb\x97c\x87\xc9?'
p27
tp28
Rp29
aF0.5856186444894946
aF0.26228072770710364
ag13
aa(lp30
F0.7315507983990346
aF0.26742671097624254
ag4
(g8
S'\xbf\x0eAE\xfd\xb0\xa4?'
p31
tp32
Rp33
aF0.5856186444894946
aF0.26228072770710364
ag13
aa(lp34
F0.6119796809343281
aF0.04862587902969977
ag4
(g8
S'\xc0:i\xf0\x81\xcb\xcd?'
p35
tp36
Rp37
aF0.5856186444894946
aF0.26228072770710364
ag13
aa(lp38
F0.6063552518853035
aF0.2953251488031016
ag4
(g8
S"<Z\xe5\x93'\x06\xa3?"
p39
tp40
Rp41
aF0.6063552518853035
aF0.2953251488031016
ag41
aa(lp42
F0.5535066796697603
aF0.1829978789191246
ag4
(g8
S'N\xa5(\x9ayV\xab?'
p43
tp44
Rp45
aF0.6063552518853035
aF0.2953251488031016
ag41
aa(lp46
F0.6788371200004601
aF0.06949112426181021
ag4
(g8
S'\x83\xa8\xd6\xba\x0f\x9b\xc9?'
p47
tp48
Rp49
aF0.6063552518853035
aF0.2953251488031016
ag41
aa(lp50
F0.85966878338961
aF0.2663710921575126
ag4
(g8
S"'p\xb4\x96\x9eN\xa6?"
p51
tp52
Rp53
aF0.6063552518853035
aF0.2953251488031016
ag41
aa(lp54
F0.7518776493224109
aF0.14604989210796543
ag4
(g8
S'\x98\x0cl<\xce\xad\xb2?'
p55
tp56
Rp57
aF0.6063552518853035
aF0.2953251488031016
ag41
aa(lp58
F0.6316977073853747
aF0.2793751109368984
ag4
(g8
S' \xdc\xc3\x86_K\xa4?'
p59
tp60
Rp61
aF0.6063552518853035
aF0.2953251488031016
ag41
aa(lp62
F0.9469628544067233
aF0.0777614023157789
ag4
(g8
S'H8\x1c\xf31c\xc7?'
p63
tp64
Rp65
aF0.6063552518853035
aF0.2953251488031016
ag41
aa(lp66
F0.809245710663737
aF0.066901172151197
ag4
(g8
S'\n\x02S\xb2"S\xca?'
p67
tp68
Rp69
aF0.6063552518853035
aF0.2953251488031016
ag41
aa(lp70
F0.9218051235894696
aF0.10599451669165563
ag4
(g8
S"x\xae\xa4'?\xd6\xbf?"
p71
tp72
Rp73
aF0.6063552518853035
aF0.2953251488031016
ag41
aa(lp74
F0.9724298986758699
aF0.2181624168370101
ag4
(g8
S'\xac\x92\xb0n\x89\x03\xa7?'
p75
tp76
Rp77
aF0.6063552518853035
aF0.2953251488031016
ag41
aa(lp78
F0.7804637275953086
aF0.15287335148405926
ag4
(g8
S'ON\rOB\r\xb2?'
p79
tp80
Rp81
aF0.6063552518853035
aF0.2953251488031016
ag41
aa(lp82
F0.518330899005665
aF0.2911211289854178
ag4
(g8
S'\xd7\x1a\xb6a\x9b\x07\xa4?'
p83
tp84
Rp85
aF0.6063552518853035
aF0.2953251488031016
ag41
aa(lp86
F0.8790630982602603
aF0.09589742687798683
ag4
(g8
S'\xdc\xe1O\xb9\xb4\x9e\xc2?'
p87
tp88
Rp89
aF0.6063552518853035
aF0.2953251488031016
ag41
aa(lp90
F0.9092197929262871
aF0.21634452014452396
ag4
(g8
S'\x16%\x8b\x0fVV\xa7?'
p91
tp92
Rp93
aF0.6063552518853035
aF0.2953251488031016
ag41
aa(lp94
F0.6765775672685465
aF0.02618632631261345
ag4
(g8
S'\xb3\x8c \xa7D\xb7\xd0?'
p95
tp96
Rp97
aF0.6063552518853035
aF0.2953251488031016
ag41
aa(lp98
F0.6917901530260566
aF0.2925348271560039
ag4
(g8
S'2\x01U\xdbb\xaf\xa3?'
p99
tp100
Rp101
aF0.6063552518853035
aF0.2953251488031016
ag41
aa(lp102
F0.8769708520396833
aF0.09720734719157359
ag4
(g8
S'B\xdaB\xabUw\xc2?'
p103
tp104
Rp105
aF0.6063552518853035
aF0.2953251488031016
ag41
aa(lp106
F0.6738539294396566
aF0.20917302251971276
ag4
(g8
S'&\x1d\xdef2\x9d\xa8?'
p107
tp108
Rp109
aF0.6063552518853035
aF0.2953251488031016
ag41
aa(lp110
F0.6561655667730515
aF0.014201743338097983
ag4
(g8
S'\xcd4I\xb2p?\xd1?'
p111
tp112
Rp113
aF0.6063552518853035
aF0.2953251488031016
ag41
aa(lp114
F0.8176822207289649
aF0.049429223067517736
ag4
(g8
S'\xde\xf4\x80\xe3K\x9c\xce?'
p115
tp116
Rp117
aF0.6063552518853035
aF0.2953251488031016
ag41
aa(lp118
F0.703731622335305
aF0.12441960726174806
ag4
(g8
S'\xc6\xc0*\xfd\x1e\x88\xb8?'
p119
tp120
Rp121
aF0.6063552518853035
aF0.2953251488031016
ag41
aa(lp122
F0.6141023280550388
aF0.15637975569269916
ag4
(g8
S'\x90~\xb1}\xaeI\xb1?'
p123
tp124
Rp125
aF0.6063552518853035
aF0.2953251488031016
ag41
aa(lp126
F0.7239780532922876
aF0.23293179449418086
ag4
(g8
S'uWpjI\xfa\xa4?'
p127
tp128
Rp129
aF0.6063552518853035
aF0.2953251488031016
ag41
aa(lp130
F0.9792560156880498
aF0.20109438404845253
ag4
(g8
S'\x85\x93\xd0\xdd\xe4\xb6\xa8?'
p131
tp132
Rp133
aF0.6063552518853035
aF0.2953251488031016
ag41
aaaa(lp134
(lp135
g4
(g8
S'\xe1\xda\xdc\xa7\x9e<\n@'
p136
tp137
Rp138
a(lp139
g4
(g8
S'\xcc\x07\xaah\x07\xde\x97?'
p140
tp141
Rp142
ag4
(g8
S'\x97za\xe0b\xbc\x95?'
p143
tp144
Rp145
ag4
(g8
S'\x02\x11`\x01:\x1b\xa0?'
p146
tp147
Rp148
ag4
(g8
S'\x9a\xd2\xca\xdeo\x18\xaf?'
p149
tp150
Rp151
ag4
(g8
S'\xb1i\x8d\xaf4\xd0\xaa?'
p152
tp153
Rp154
ag4
(g8
S'\xbe}\xad\x88\xf4\xe0\xa1?'
p155
tp156
Rp157
ag4
(g8
S'8\xd9\xc2%O(\xac?'
p158
tp159
Rp160
ag4
(g8
S'\x1a"M\x96\x90\xc1\xa9?'
p161
tp162
Rp163
ag4
(g8
S'7RBu\x03\xd5\x9d?'
p164
tp165
Rp166
ag4
(g8
S'\xc7S;\xf8\xa0(\x8f?'
p167
tp168
Rp169
ag4
(g8
S'j\xb4\x96b}@\xa4?'
p170
tp171
Rp172
ag4
(g8
S'\xb3\x91\x0cay\x15\xa5?'
p173
tp174
Rp175
ag4
(g8
S'b\x8c>\xdc\xe0\xae\xa5?'
p176
tp177
Rp178
ag4
(g8
S'\x87<\x06\x1b\xaco\xb5?'
p179
tp180
Rp181
ag4
(g8
S'\n\x8a\xaa1\n\x9d\xa5?'
p182
tp183
Rp184
ag4
(g8
S'{\xf1\xab\x19C\x8c\x9f?'
p185
tp186
Rp187
ag4
(g8
S'\x90\x10\x12\xfd\xa1\x98\xa8?'
p188
tp189
Rp190
ag4
(g8
S'\x15.\t\x84T\xc0\x92?'
p191
tp192
Rp193
ag4
(g8
S'|d\xda#\xf8\xa1\xa0?'
p194
tp195
Rp196
ag4
(g8
S'\xd8\x0e\xc2/\xfc\xc6\x99?'
p197
tp198
Rp199
ag4
(g8
S'\xf1H\xccva\x9c\x95?'
p200
tp201
Rp202
ag4
(g8
S'\x99$|#\x8a4\x86?'
p203
tp204
Rp205
ag4
(g8
S'\xc46\xc4v\xcan\xb1?'
p206
tp207
Rp208
ag4
(g8
S'R\x0f\xc8\x7fc\xc3\xae?'
p209
tp210
Rp211
ag4
(g8
S'L\x8d\xd0\xf7\xa6\x9c\xa5?'
p212
tp213
Rp214
ag4
(g8
S'%\x8e1.\x0b9\xb2?'
p215
tp216
Rp217
ag4
(g8
S'T\x19\xb6\x003\x16\xa5?'
p218
tp219
Rp220
ag4
(g8
S'6\xe5\xe8\x06\x9a\x19\xad?'
p221
tp222
Rp223
ag4
(g8
S'\xa2\x15\x88b#\xe6\x99?'
p224
tp225
Rp226
ag4
(g8
S'&\x8f\xefzX\x97\xae?'
p227
tp228
Rp229
ag4
(g8
S'|o\x1f\x0b\x9b%\xa5?'
p230
tp231
Rp232
ag4
(g8
S'\x10U\xc26,,\xa5?'
p233
tp234
Rp235
ag4
(g8
S'W\xb7\xa2\xf8\x1d\xb1\xa8?'
p236
tp237
Rp238
ag4
(g8
S'\x9a\xeaAw\x11\xd1\x8f?'
p239
tp240
Rp241
ag4
(g8
S'_{m\n\xf7\n\xa8?'
p242
tp243
Rp244
ag4
(g8
S'\x98\xf8\x80\xb1\xc6\xf8\xa2?'
p245
tp246
Rp247
ag4
(g8
S'\xe9u\xdct{\xb9|?'
p248
tp249
Rp250
ag4
(g8
S'f^\x84.~\r\xa6?'
p251
tp252
Rp253
ag4
(g8
S'\xf2\xad\xe7A2\x8f\xa9?'
p254
tp255
Rp256
ag4
(g8
S'\xfb\x810\xe7!\x1b\xa8?'
p257
tp258
Rp259
ag4
(g8
S'\xc8y\x90f\x861\xb4?'
p260
tp261
Rp262
ag4
(g8
S'z0Mu\x0f(\xb5?'
p263
tp264
Rp265
ag4
(g8
S'm\x93R\x10\xf8\xb8\xaf?'
p266
tp267
Rp268
ag4
(g8
S'\xd1\xc6y\x16$\x1e\xad?'
p269
tp270
Rp271
ag4
(g8
S'\x83\x12\xfb\xcb\xda\xfe\xa3?'
p272
tp273
Rp274
ag4
(g8
S'R\xd9\x8d\x18BY\x9e?'
p275
tp276
Rp277
ag4
(g8
S'\xe5\xd0\xff\xa4\x0e\xa8\xaa?'
p278
tp279
Rp280
ag4
(g8
S'SJ\x17<\x148\x9a?'
p281
tp282
Rp283
ag4
(g8
S'\xccg\x9c\x86\xd7\xd0\xa0?'
p284
tp285
Rp286
ag4
(g8
S'9\x85$W\\\x82\x8c?'
p287
tp288
Rp289
ag4
(g8
S'\xc9E\x86\xf5\xb4"\xa6?'
p290
tp291
Rp292
ag4
(g8
S'\xa9{\xad\x9bdA\x94?'
p293
tp294
Rp295
ag4
(g8
S'\\\xe7f8\xca\xfa\xaf?'
p296
tp297
Rp298
ag4
(g8
S'\x9a\xeeb\xef\xcep\xa2?'
p299
tp300
Rp301
ag4
(g8
S't\x8e}/\x97M\x94?'
p302
tp303
Rp304
ag4
(g8
S'j\x9e\xe0\xe0\x87\xeb\xa0?'
p305
tp306
Rp307
ag4
(g8
S'\xd4\x85:\x1c\xc7\xa8\xa5?'
p308
tp309
Rp310
ag4
(g8
S'\xc9\x85=\x1dV\xdb\xa7?'
p311
tp312
Rp313
ag4
(g8
S'bsP\x8db\xbd\xb0?'
p314
tp315
Rp316
ag4
(g8
S'\x14\x9b1\xc99\x08\x8d?'
p317
tp318
Rp319
ag4
(g8
S'\xfcD\xc6\xe7\x1f\xdc\xaf?'
p320
tp321
Rp322
ag4
(g8
S'\xc3\x08\x00\xe4t4\x96?'
p323
tp324
Rp325
ag4
(g8
S'\x06vdY\xa3\x83\xb1?'
p326
tp327
Rp328
ag4
(g8
S'\x9eJ\xb5{\x1f\xc2\x9a?'
p329
tp330
Rp331
ag4
(g8
S'\xcc&\xacB\xa7s\xa5?'
p332
tp333
Rp334
ag4
(g8
S'4 \xc1\x16\xc1\xf3\xaa?'
p335
tp336
Rp337
ag4
(g8
S'$\x03+4\x95\xaas?'
p338
tp339
Rp340
ag4
(g8
S'P\xaf\x18\xd8\x81t\xaa?'
p341
tp342
Rp343
ag4
(g8
S'\xa0\xdb\x05\xb3\x06\xcb\xa2?'
p344
tp345
Rp346
ag4
(g8
S'/\xaa\r\xcf\x84\xdf\x95?'
p347
tp348
Rp349
ag4
(g8
S'1a\xd6\xd8\xcf\xa8\x9f?'
p350
tp351
Rp352
ag4
(g8
S'\x14r\x8d\xdc\xcf\x83\xb2?'
p353
tp354
Rp355
ag4
(g8
S'\x86i4\xe7\x1f\xf3y?'
p356
tp357
Rp358
ag4
(g8
S'\xa9\x16\xaf\x07\x9f9\xab?'
p359
tp360
Rp361
ag4
(g8
S'\x1d\x04b\x87~\xd2\x9d?'
p362
tp363
Rp364
ag4
(g8
S'D\xff\xe2/X\xd3\xaa?'
p365
tp366
Rp367
ag4
(g8
S'[\xd3?\x10\xe4\xdd\xad?'
p368
tp369
Rp370
ag4
(g8
S"\xc6'-\xe3\x94\xaf\x97?"
p371
tp372
Rp373
ag4
(g8
S'w\\\xff\xd1\xc9\xa3\xae?'
p374
tp375
Rp376
ag4
(g8
S'\x9c7E\xb3\xef\xbf\xa3?'
p377
tp378
Rp379
aag4
(g8
S'\x02+\xe5\xbb\x81\xe8\x9f?'
p380
tp381
Rp382
ag4
(g8
S'w\xf1\x08\xa5\xe2\xe3"@'
p383
tp384
Rp385
aaa(lp386
F60.3546621799469
aa.