(lp0
(lp1
(lp2
(lp3
F0.9915406106419642
aF0.28091005602934116
acnumpy.core.multiarray
scalar
p4
(cnumpy
dtype
p5
(S'f8'
p6
I0
I1
tp7
Rp8
(I3
S'<'
p9
NNNI-1
I-1
I0
tp10
bS'\xb5\xcc\x86J\xae\xae\xa3?'
p11
tp12
Rp13
aF0.9915406106419642
aF0.28091005602934116
ag13
aa(lp14
F0.729524303165247
aF0.27767465711569667
ag4
(g8
S'\xaf\x0ec(/\xed\xa2?'
p15
tp16
Rp17
aF0.729524303165247
aF0.27767465711569667
ag17
aa(lp18
F0.5983285840695939
aF0.1949353439142369
ag4
(g8
S'\x19\x93P\xce\x99 \xa8?'
p19
tp20
Rp21
aF0.729524303165247
aF0.27767465711569667
ag17
aa(lp22
F0.9211084440235189
aF0.2777141047022267
ag4
(g8
S'\xea\x0b\x98\x0e\xe3(\xa5?'
p23
tp24
Rp25
aF0.729524303165247
aF0.27767465711569667
ag17
aa(lp26
F0.9740119625646297
aF0.006668918922902256
ag4
(g8
S'\x1c\xa7\xdc=\xaeu\xd1?'
p27
tp28
Rp29
aF0.729524303165247
aF0.27767465711569667
ag17
aa(lp30
F0.6914086804401489
aF0.23932379879169619
ag4
(g8
S'Z\xd5\x8b\x81\xd0\x13\xa6?'
p31
tp32
Rp33
aF0.729524303165247
aF0.27767465711569667
ag17
aa(lp34
F0.8429335939339405
aF0.036375747186665426
ag4
(g8
S'>\xdd\x9cJ\xed\x1a\xd0?'
p35
tp36
Rp37
aF0.729524303165247
aF0.27767465711569667
ag17
aa(lp38
F0.5786159370078399
aF0.24135676666066525
ag4
(g8
S'\xf6\xd9\x04:\x18\xce\xa4?'
p39
tp40
Rp41
aF0.729524303165247
aF0.27767465711569667
ag17
aa(lp42
F0.6893042430746844
aF0.18173006176990492
ag4
(g8
S':\xe5b\xf4\xc5\x99\xaa?'
p43
tp44
Rp45
aF0.729524303165247
aF0.27767465711569667
ag17
aa(lp46
F0.6929698039198473
aF0.06915313944274865
ag4
(g8
S'"\rG\x13="\xca?'
p47
tp48
Rp49
aF0.729524303165247
aF0.27767465711569667
ag17
aa(lp50
F0.7201572292568377
aF0.13346359071680325
ag4
(g8
S'G\xd9=G\x03\x9c\xb6?'
p51
tp52
Rp53
aF0.729524303165247
aF0.27767465711569667
ag17
aa(lp54
F0.5431675905126256
aF0.03591419193109162
ag4
(g8
S'\xa3\x8e\x02\xf6\xb6\x8f\xcf?'
p55
tp56
Rp57
aF0.729524303165247
aF0.27767465711569667
ag17
aa(lp58
F0.7953305233107386
aF0.09178902995807016
ag4
(g8
S'9\xb9\x98?:-\xc4?'
p59
tp60
Rp61
aF0.729524303165247
aF0.27767465711569667
ag17
aa(lp62
F0.9464713233124292
aF0.18342222225878177
ag4
(g8
S"\xc5\xa4J'\x98\xd1\xaa?"
p63
tp64
Rp65
aF0.729524303165247
aF0.27767465711569667
ag17
aa(lp66
F0.953576930519114
aF0.05858749480380551
ag4
(g8
S'\xcd\xb8\xe2>\x0e7\xcb?'
p67
tp68
Rp69
aF0.729524303165247
aF0.27767465711569667
ag17
aa(lp70
F0.732299509424626
aF0.12674558824542237
ag4
(g8
S'\xb1A\xa5\xca \xb9\xb6?'
p71
tp72
Rp73
aF0.729524303165247
aF0.27767465711569667
ag17
aa(lp74
F0.8131205958229741
aF0.15209430158614703
ag4
(g8
S'\x1f\xa1\x92\x0e\xf8m\xb2?'
p75
tp76
Rp77
aF0.729524303165247
aF0.27767465711569667
ag17
aa(lp78
F0.8421807776325918
aF0.22043085510648677
ag4
(g8
S"2Z\x04\xb7'I\xa6?"
p79
tp80
Rp81
aF0.729524303165247
aF0.27767465711569667
ag17
aa(lp82
F0.7021944047567168
aF0.25912652348655674
ag4
(g8
S'6N\xb1\x8d\x1a\x04\xa4?'
p83
tp84
Rp85
aF0.729524303165247
aF0.27767465711569667
ag17
aa(lp86
F0.9496887088553836
aF0.18342342862777125
ag4
(g8
S'\xee\x87o\x02\xc8v\xa9?'
p87
tp88
Rp89
aF0.729524303165247
aF0.27767465711569667
ag17
aa(lp90
F0.9733680192232297
aF0.20507042130941072
ag4
(g8
S'\xf7\xc3\xc6j\xc0\x9c\xa7?'
p91
tp92
Rp93
aF0.729524303165247
aF0.27767465711569667
ag17
aa(lp94
F0.5837027718261494
aF0.2599861363262825
ag4
(g8
S'^\xb1T\x9aI\x9e\xa4?'
p95
tp96
Rp97
aF0.729524303165247
aF0.27767465711569667
ag17
aa(lp98
F0.9771969747393788
aF0.05039036538750876
ag4
(g8
S'\xe3a\xc7{\x85\xdf\xcc?'
p99
tp100
Rp101
aF0.729524303165247
aF0.27767465711569667
ag17
aa(lp102
F0.8915156042492127
aF0.09379383301048827
ag4
(g8
S'(\xbb\xcc\xde\xe6f\xc4?'
p103
tp104
Rp105
aF0.729524303165247
aF0.27767465711569667
ag17
aa(lp106
F0.9645080675297106
aF0.13848011663203186
ag4
(g8
S'r\x84\xe1\x0e \x97\xb4?'
p107
tp108
Rp109
aF0.729524303165247
aF0.27767465711569667
ag17
aa(lp110
F0.5100881331983818
aF0.20545509070949883
ag4
(g8
S'\xf8\x06\xac\xbb\xf1\x87\xa7?'
p111
tp112
Rp113
aF0.729524303165247
aF0.27767465711569667
ag17
aa(lp114
F0.5461974675248172
aF0.26721215274459487
ag4
(g8
S'sAk\xd4\x0f\xe7\xa3?'
p115
tp116
Rp117
aF0.729524303165247
aF0.27767465711569667
ag17
aa(lp118
F0.6755713844909017
aF0.09743178162855418
ag4
(g8
S'\x0c[\x1c\xfchM\xc3?'
p119
tp120
Rp121
aF0.729524303165247
aF0.27767465711569667
ag17
aa(lp122
F0.6172136105391471
aF0.26820881087986226
ag4
(g8
S'wb\xbc\x1f;\x16\xa5?'
p123
tp124
Rp125
aF0.729524303165247
aF0.27767465711569667
ag17
aa(lp126
F0.5668713162449559
aF0.017760400639544916
ag4
(g8
S'Ew=\xfaY1\xd1?'
p127
tp128
Rp129
aF0.729524303165247
aF0.27767465711569667
ag17
aa(lp130
F0.8158683064343695
aF0.036512073277842845
ag4
(g8
S'[\x94\xe9tj\xc2\xcf?'
p131
tp132
Rp133
aF0.729524303165247
aF0.27767465711569667
ag17
aaaa(lp134
(lp135
g4
(g8
S'\x98\xfd\xbe\xc1J3\n@'
p136
tp137
Rp138
a(lp139
g4
(g8
S'GQ&\xd0(\xfd\x96?'
p140
tp141
Rp142
ag4
(g8
S'\xfd\x92q\xdenX\x9a?'
p143
tp144
Rp145
ag4
(g8
S'\xfe\xf0,_\xed(\xaf?'
p146
tp147
Rp148
ag4
(g8
S'>\xa3Zb_s\xa4?'
p149
tp150
Rp151
ag4
(g8
S'\xea\xaa\x1f|\\\xd0\xa9?'
p152
tp153
Rp154
ag4
(g8
S'\xeek\xe4\x14\xc7\xa5\xa0?'
p155
tp156
Rp157
ag4
(g8
S'f%D\x92`S\xad?'
p158
tp159
Rp160
ag4
(g8
S'\x86Z\xba>Xf\xaf?'
p161
tp162
Rp163
ag4
(g8
S'\xd6Br\xfe\xd5\xdf\xb1?'
p164
tp165
Rp166
ag4
(g8
S'N\xef\x9e\x00L\xf4\x87?'
p167
tp168
Rp169
ag4
(g8
S'\x96\x83\x96\xf1}L\x98?'
p170
tp171
Rp172
ag4
(g8
S'o\xb1F\x96K\x14\xa3?'
p173
tp174
Rp175
ag4
(g8
S'\xd6N\x1e`\xd5\x1f\xa6?'
p176
tp177
Rp178
ag4
(g8
S'@Q\x15\xac\xdfc\xba?'
p179
tp180
Rp181
ag4
(g8
S'`NU\x86\x02\xe7\xa6?'
p182
tp183
Rp184
ag4
(g8
S'\xb1\xf5\xbc7\x92!\xa1?'
p185
tp186
Rp187
ag4
(g8
S'J\x0c,HU\xf5\xab?'
p188
tp189
Rp190
ag4
(g8
S'e#`\x13\xe8\xe8\x92?'
p191
tp192
Rp193
ag4
(g8
S'\x14\x13Y\x89\xb6v\xa1?'
p194
tp195
Rp196
ag4
(g8
S'\x84\x882\xd6j\xf1\x9b?'
p197
tp198
Rp199
ag4
(g8
S'\x88%7\xf6\xd0\xb1\x94?'
p200
tp201
Rp202
ag4
(g8
S'\xcf\xc9\xaaf\xb5\xdb\x88?'
p203
tp204
Rp205
ag4
(g8
S'I\xbbz\xd1\x80\x88\xa8?'
p206
tp207
Rp208
ag4
(g8
S'\x13\xadl\x97\xf2\xa9\xac?'
p209
tp210
Rp211
ag4
(g8
S'D\r\xbfD\xe7\t\x9e?'
p212
tp213
Rp214
ag4
(g8
S'\xb6\xdfW\xf2\x93\xfb\xae?'
p215
tp216
Rp217
ag4
(g8
S'\xf4\xfcO\x87o,\x9f?'
p218
tp219
Rp220
ag4
(g8
S'.=\xe6Bt\x9f\xae?'
p221
tp222
Rp223
ag4
(g8
S'\xac(<\xe2\xc8\xa9\x99?'
p224
tp225
Rp226
ag4
(g8
S'6\xb5$\xe8\xb7\xf4\xa0?'
p227
tp228
Rp229
ag4
(g8
S'\xb4(\xe5\xe9*?\xa6?'
p230
tp231
Rp232
ag4
(g8
S'XX\x88\x1e\xcd\xbf\xaf?'
p233
tp234
Rp235
ag4
(g8
S'r\xa2\xbc\x85\xc4\x16\xaa?'
p236
tp237
Rp238
ag4
(g8
S'^\x83\x97\xdc8\x92\x93?'
p239
tp240
Rp241
ag4
(g8
S'B\xc4r\xcd\xc18\xa8?'
p242
tp243
Rp244
ag4
(g8
S'agG9\xd4k\xa1?'
p245
tp246
Rp247
ag4
(g8
S'z\x98\xd3\x04jzw?'
p248
tp249
Rp250
ag4
(g8
S'2\x9f\xb3\x8bFL\xa6?'
p251
tp252
Rp253
ag4
(g8
S'\n\xa5\x9b\xd1\xb6T\xa9?'
p254
tp255
Rp256
ag4
(g8
S'=o&\x01\x9a\xbd\xab?'
p257
tp258
Rp259
ag4
(g8
S'V\xfa5\x84N\xff\xaf?'
p260
tp261
Rp262
ag4
(g8
S' \x83\xd7\xc6\x15X\xb2?'
p263
tp264
Rp265
ag4
(g8
S'h\x8e#\x11\xd5\x8e\xb2?'
p266
tp267
Rp268
ag4
(g8
S'H\xb6\x0f\x81tv\xaf?'
p269
tp270
Rp271
ag4
(g8
S'\xaa\x16\xdc%`\xb8\xa6?'
p272
tp273
Rp274
ag4
(g8
S'\x9b\xa7\xf4\x06\x0f\xb9\xaa?'
p275
tp276
Rp277
ag4
(g8
S'\xd2\x14A\xa7\xe5\xa2\xaa?'
p278
tp279
Rp280
ag4
(g8
S'\xfa\x10\x18\xc6\xdf\xf3\x96?'
p281
tp282
Rp283
ag4
(g8
S'\xc3.\xd5\xa7K\xc1\xa2?'
p284
tp285
Rp286
ag4
(g8
S'\xe0!\xde\xb1\xc3\x18\x91?'
p287
tp288
Rp289
ag4
(g8
S'\x80\xbe\xadB>\xd4\xa5?'
p290
tp291
Rp292
ag4
(g8
S'Gm\xf2\xd4pR\x96?'
p293
tp294
Rp295
ag4
(g8
S'\xb8+\xff\x15\xc78\xae?'
p296
tp297
Rp298
ag4
(g8
S'\xee\x1fk\xd8\xa6,\xa1?'
p299
tp300
Rp301
ag4
(g8
S'\xea6@\xf3$J\x90?'
p302
tp303
Rp304
ag4
(g8
S'\xae\x1ai\xbb)\x01\x9c?'
p305
tp306
Rp307
ag4
(g8
S'Z\x1e\xddup\x17\xa6?'
p308
tp309
Rp310
ag4
(g8
S'\x88h\xa2\xa3\xfa8\xa7?'
p311
tp312
Rp313
ag4
(g8
S' \xddV\x92\xc8\xc5\xaa?'
p314
tp315
Rp316
ag4
(g8
S'N\xb8\xf9\xc4\xb7<\x93?'
p317
tp318
Rp319
ag4
(g8
S'\xecl\xcb\xe1\xe9\x10\xa4?'
p320
tp321
Rp322
ag4
(g8
S"\xdd\xd8c\xab'\xe7\x93?"
p323
tp324
Rp325
ag4
(g8
S'NY\x0bw<Z\xac?'
p326
tp327
Rp328
ag4
(g8
S'\xf5\x80\xc6U\xa4\xf5\x95?'
p329
tp330
Rp331
ag4
(g8
S'{\xcaNq\x0f_\xa6?'
p332
tp333
Rp334
ag4
(g8
S';\xd0\xf2\xee\xeb\xf0\xa9?'
p335
tp336
Rp337
ag4
(g8
S'\xc3l\xd2$\xd0\x1c{?'
p338
tp339
Rp340
ag4
(g8
S'\\|\x12{\xc7+\xac?'
p341
tp342
Rp343
ag4
(g8
S'\x9e&T\tI.\xa0?'
p344
tp345
Rp346
ag4
(g8
S'^\x9c\xea\xbe\xfc\x04\x99?'
p347
tp348
Rp349
ag4
(g8
S'\xb8\xab\xa1\x15\xd5\xd9\xa5?'
p350
tp351
Rp352
ag4
(g8
S'\xc9\x05&\xcc\xd9\xb8\xad?'
p353
tp354
Rp355
ag4
(g8
S'\r\x86\x18=\xca\x11q?'
p356
tp357
Rp358
ag4
(g8
S'\x80?\xb8\xd7\x05\x9c\xae?'
p359
tp360
Rp361
ag4
(g8
S',8M}\xbem\xa2?'
p362
tp363
Rp364
ag4
(g8
S'w\xd6a\xb3\x0bE\xae?'
p365
tp366
Rp367
ag4
(g8
S'0\xc7\xfa\xc1\xc1\xb2\xac?'
p368
tp369
Rp370
ag4
(g8
S'Q\x87\xd3\x11\xe9H\x97?'
p371
tp372
Rp373
ag4
(g8
S'\x02\x8f}\xff\xfej\xaf?'
p374
tp375
Rp376
ag4
(g8
S'P\t\xfc\xcaa\xfb\xa3?'
p377
tp378
Rp379
aag4
(g8
S'\xcb\x159\xc76\xcf\x9f?'
p380
tp381
Rp382
ag4
(g8
S'3\xdb\x0bJ\xa3\xec"@'
p383
tp384
Rp385
aaa(lp386
F61.60473299026489
aa.