(lp0
(lp1
(lp2
(lp3
F0.7360356608247521
aF0.2228195142460056
acnumpy.core.multiarray
scalar
p4
(cnumpy
dtype
p5
(S'f8'
p6
I0
I1
tp7
Rp8
(I3
S'<'
p9
NNNI-1
I-1
I0
tp10
bS'$\xe1\x02\xd3\x96b\xa5?'
p11
tp12
Rp13
aF0.7360356608247521
aF0.2228195142460056
ag13
aa(lp14
F0.5299124002625275
aF0.07955265824784837
ag4
(g8
S'\x96\x84=\xc8\n;\xc5?'
p15
tp16
Rp17
aF0.7360356608247521
aF0.2228195142460056
ag13
aa(lp18
F0.9394143647456901
aF0.21354964032089221
ag4
(g8
S'\xbb\x92\x1b%7J\xa5?'
p19
tp20
Rp21
aF0.9394143647456901
aF0.21354964032089221
ag21
aa(lp22
F0.8017772031488785
aF0.1637450210934398
ag4
(g8
S'f2\x97w\x90\xa2\xae?'
p23
tp24
Rp25
aF0.9394143647456901
aF0.21354964032089221
ag21
aa(lp26
F0.6738241220167995
aF0.033135271320712444
ag4
(g8
S'\x0b\xd2\x85\xe9B\xf1\xcf?'
p27
tp28
Rp29
aF0.9394143647456901
aF0.21354964032089221
ag21
aa(lp30
F0.5820383169700715
aF0.03723281768161426
ag4
(g8
S'P\xb85\xcbe0\xcf?'
p31
tp32
Rp33
aF0.9394143647456901
aF0.21354964032089221
ag21
aa(lp34
F0.5887822557973026
aF0.1579937487998514
ag4
(g8
S'\x126\xff \xbc\xf5\xad?'
p35
tp36
Rp37
aF0.9394143647456901
aF0.21354964032089221
ag21
aa(lp38
F0.5032016704800764
aF0.29619919640443976
ag4
(g8
S'\x1b%\x1c2\xeb\xd4\xa1?'
p39
tp40
Rp41
aF0.5032016704800764
aF0.29619919640443976
ag41
aa(lp42
F0.7212802556194897
aF0.03677215944392692
ag4
(g8
S'Hw\xe9\x9b\x89"\xcf?'
p43
tp44
Rp45
aF0.5032016704800764
aF0.29619919640443976
ag41
aa(lp46
F0.8091736084240123
aF0.15760858161015767
ag4
(g8
S'\xeb+J\x87e\n\xad?'
p47
tp48
Rp49
aF0.5032016704800764
aF0.29619919640443976
ag41
aa(lp50
F0.9639692314190953
aF0.06341666450406436
ag4
(g8
S'\xe6c\xc8k\xb0\x99\xc9?'
p51
tp52
Rp53
aF0.5032016704800764
aF0.29619919640443976
ag41
aa(lp54
F0.5056403674729371
aF0.05904166306522592
ag4
(g8
S'\xd5m\x90\xdb\x13\xf8\xc9?'
p55
tp56
Rp57
aF0.5032016704800764
aF0.29619919640443976
ag41
aa(lp58
F0.7465044424766965
aF0.1267996286057817
ag4
(g8
S'\x02hWH\xba\xdb\xb5?'
p59
tp60
Rp61
aF0.5032016704800764
aF0.29619919640443976
ag41
aa(lp62
F0.6004820320468036
aF0.09955808106040107
ag4
(g8
S'\xee\xd7D\x07\xe1X\xbe?'
p63
tp64
Rp65
aF0.5032016704800764
aF0.29619919640443976
ag41
aa(lp66
F0.5999957048080082
aF0.05169550988537492
ag4
(g8
S">\xcf'\x9c\xb1O\xcb?"
p67
tp68
Rp69
aF0.5032016704800764
aF0.29619919640443976
ag41
aa(lp70
F0.5856262259979018
aF0.17654361676382826
ag4
(g8
S'\xdb\xde\xcd("\xfe\xa8?'
p71
tp72
Rp73
aF0.5032016704800764
aF0.29619919640443976
ag41
aa(lp74
F0.5151730779969268
aF0.24089266175628712
ag4
(g8
S'%\xdd\tz\x8e\x0b\xa3?'
p75
tp76
Rp77
aF0.5032016704800764
aF0.29619919640443976
ag41
aa(lp78
F0.7578275447907508
aF0.1056666121550216
ag4
(g8
S'\xad\x89\xf6\x89\xe0\x99\xbd?'
p79
tp80
Rp81
aF0.5032016704800764
aF0.29619919640443976
ag41
aa(lp82
F0.8241613677706059
aF0.11384893082309047
ag4
(g8
S'm\x08\x00\xd7\xed\xee\xba?'
p83
tp84
Rp85
aF0.5032016704800764
aF0.29619919640443976
ag41
aa(lp86
F0.7139308158240449
aF0.20288245044111416
ag4
(g8
S'\xf6\xb1(\xe5*\x97\xa5?'
p87
tp88
Rp89
aF0.5032016704800764
aF0.29619919640443976
ag41
aa(lp90
F0.9971095766870233
aF0.13022731417108074
ag4
(g8
S'J6\xcf\xbf\x8e1\xb5?'
p91
tp92
Rp93
aF0.5032016704800764
aF0.29619919640443976
ag41
aa(lp94
F0.6825390672817027
aF0.2689475362527129
ag4
(g8
S'\x83\xa3\xf5\x82\x1e\xb5\xa1?'
p95
tp96
Rp97
aF0.6825390672817027
aF0.2689475362527129
ag97
aa(lp98
F0.7722566462895359
aF0.19599524094515344
ag4
(g8
S'\xed\xf33\xee\xddh\xa6?'
p99
tp100
Rp101
aF0.6825390672817027
aF0.2689475362527129
ag97
aa(lp102
F0.7584887867173056
aF0.22778553599622378
ag4
(g8
S'\x92\xabe\x89o\x80\xa5?'
p103
tp104
Rp105
aF0.6825390672817027
aF0.2689475362527129
ag97
aa(lp106
F0.9795156628337176
aF0.22644339735866706
ag4
(g8
S'0^-Yl\xc7\xa3?'
p107
tp108
Rp109
aF0.6825390672817027
aF0.2689475362527129
ag97
aa(lp110
F0.9151998046421638
aF0.0505739184009098
ag4
(g8
S"\xda\xda\x8f'\xd6I\xcb?"
p111
tp112
Rp113
aF0.6825390672817027
aF0.2689475362527129
ag97
aa(lp114
F0.7044386754241858
aF0.2879795542674696
ag4
(g8
S'\xccS\xb1\x06z\xee\xa2?'
p115
tp116
Rp117
aF0.6825390672817027
aF0.2689475362527129
ag97
aa(lp118
F0.9143083541880146
aF0.1853583758825273
ag4
(g8
S' \xfc\xbeN\xd2R\xa7?'
p119
tp120
Rp121
aF0.6825390672817027
aF0.2689475362527129
ag97
aa(lp122
F0.6349303766404705
aF0.14532798247836762
ag4
(g8
S'6\x05MK\xe3\xe7\xb0?'
p123
tp124
Rp125
aF0.6825390672817027
aF0.2689475362527129
ag97
aa(lp126
F0.8589618469434035
aF0.20372830633672043
ag4
(g8
S'J\xb6\x84\x0f\xf0\xb9\xa6?'
p127
tp128
Rp129
aF0.6825390672817027
aF0.2689475362527129
ag97
aa(lp130
F0.6112894379314413
aF0.06525024761931819
ag4
(g8
S'm,^\x1cz\xd8\xc9?'
p131
tp132
Rp133
aF0.6825390672817027
aF0.2689475362527129
ag97
aa(lp134
F0.6954630920021249
aF0.029684092183126953
ag4
(g8
S'c\xae\xbb\xa0\xaa\xda\xce?'
p135
tp136
Rp137
aF0.6825390672817027
aF0.2689475362527129
ag97
aa(lp138
F0.5132485280865815
aF0.25634074688765024
ag4
(g8
S'\x12\x9b\xa8\xf7\\\x99\xa2?'
p139
tp140
Rp141
aF0.6825390672817027
aF0.2689475362527129
ag97
aa(lp142
F0.7206123121611969
aF0.27891553943290626
ag4
(g8
S'\xc2\x18xo\xc2N\xa2?'
p143
tp144
Rp145
aF0.6825390672817027
aF0.2689475362527129
ag97
aa(lp146
F0.8687858154065334
aF0.18080088547026021
ag4
(g8
S'\xe6C\xd5\xe2\x15\x07\xa9?'
p147
tp148
Rp149
aF0.6825390672817027
aF0.2689475362527129
ag97
aa(lp150
F0.9907534646696281
aF0.11571940199821784
ag4
(g8
S'\xbdM4\x8e\xde\x90\xb9?'
p151
tp152
Rp153
aF0.6825390672817027
aF0.2689475362527129
ag97
aa(lp154
F0.7665801566548772
aF0.12769333251023832
ag4
(g8
S'\xbe\xf6jJ\xafZ\xb6?'
p155
tp156
Rp157
aF0.6825390672817027
aF0.2689475362527129
ag97
aa(lp158
F0.6357687461385093
aF0.09482190684882771
ag4
(g8
S'\xe6\x8e\xb0r\x8c#\xc2?'
p159
tp160
Rp161
aF0.6825390672817027
aF0.2689475362527129
ag97
aaaa(lp162
F60.788463830947876
aa.