(lp0
(lp1
(lp2
(lp3
F0.950399189702595
aF0.24111912287258278
acnumpy.core.multiarray
scalar
p4
(cnumpy
dtype
p5
(S'f8'
p6
I0
I1
tp7
Rp8
(I3
S'<'
p9
NNNI-1
I-1
I0
tp10
bS'\xe4\xd2\x87\xca\xc1\xf9\xa6?'
p11
tp12
Rp13
aF0.950399189702595
aF0.24111912287258278
ag13
aa(lp14
F0.8020276507549509
aF0.127685935166955
ag4
(g8
S'\xb3\xfd\\H\xbd\x92\xbe?'
p15
tp16
Rp17
aF0.950399189702595
aF0.24111912287258278
ag13
aa(lp18
F0.8281615438954549
aF0.18558172878745824
ag4
(g8
S'-\xe7\xab\xd1~\xe8\xac?'
p19
tp20
Rp21
aF0.950399189702595
aF0.24111912287258278
ag13
aa(lp22
F0.6626440823371054
aF0.19022674988226299
ag4
(g8
S'>\xd5\xe2\xd3\xd4s\xad?'
p23
tp24
Rp25
aF0.950399189702595
aF0.24111912287258278
ag13
aa(lp26
F0.7703269359750435
aF0.19483015022570513
ag4
(g8
S'8z!Sx\xa6\xad?'
p27
tp28
Rp29
aF0.950399189702595
aF0.24111912287258278
ag13
aa(lp30
F0.9937484675709607
aF0.15720174070404647
ag4
(g8
S'.\x05\x05\xa6VM\xb5?'
p31
tp32
Rp33
aF0.950399189702595
aF0.24111912287258278
ag13
aa(lp34
F0.5003696789003023
aF0.22178241546696137
ag4
(g8
S'/A\x0b\xeaS\xbc\xa8?'
p35
tp36
Rp37
aF0.950399189702595
aF0.24111912287258278
ag13
aa(lp38
F0.8131047724361564
aF0.24521449713114785
ag4
(g8
S'\xea\xe1b`\x9c\xdd\xa7?'
p39
tp40
Rp41
aF0.950399189702595
aF0.24111912287258278
ag13
aa(lp42
F0.7636473488380817
aF0.07997752163127793
ag4
(g8
S'\xa3Z"B\xda\xd2\xca?'
p43
tp44
Rp45
aF0.950399189702595
aF0.24111912287258278
ag13
aa(lp46
F0.8901305997248633
aF0.05473010329055111
ag4
(g8
S'?\xaa\\\xba\t\xf3\xd0?'
p47
tp48
Rp49
aF0.950399189702595
aF0.24111912287258278
ag13
aa(lp50
F0.5371328103620965
aF0.04178874219620934
ag4
(g8
S'\xdf\xbf\x05\x8a\x05\xc5\xd1?'
p51
tp52
Rp53
aF0.950399189702595
aF0.24111912287258278
ag13
aa(lp54
F0.9217448129728323
aF0.24048177317034294
ag4
(g8
S'b\xe3\x1c\x16\x85z\xa7?'
p55
tp56
Rp57
aF0.950399189702595
aF0.24111912287258278
ag13
aa(lp58
F0.9914969685189459
aF0.21546908988026256
ag4
(g8
S'n\x1ea#l\xda\xa9?'
p59
tp60
Rp61
aF0.950399189702595
aF0.24111912287258278
ag13
aa(lp62
F0.6538586481806141
aF0.0022967199797121027
ag4
(g8
S'\xcb\x94\x06\xf0\x0fA\xd3?'
p63
tp64
Rp65
aF0.950399189702595
aF0.24111912287258278
ag13
aa(lp66
F0.7792468164791779
aF0.10560683441688802
ag4
(g8
S'\x14\xf9\xaf\x01}\x97\xc4?'
p67
tp68
Rp69
aF0.950399189702595
aF0.24111912287258278
ag13
aa(lp70
F0.8780568573947903
aF0.06868644572504194
ag4
(g8
S'\xb6?S\xfd\x04\x1f\xcf?'
p71
tp72
Rp73
aF0.950399189702595
aF0.24111912287258278
ag13
aa(lp74
F0.6399120222718129
aF0.169100225449456
ag4
(g8
S'\x8a\x14\xb8^\x846\xb3?'
p75
tp76
Rp77
aF0.950399189702595
aF0.24111912287258278
ag13
aa(lp78
F0.9910362384823301
aF0.2949666868804056
ag4
(g8
S'h\x7fp\xd6\x8dx\xa6?'
p79
tp80
Rp81
aF0.9910362384823301
aF0.2949666868804056
ag81
aa(lp82
F0.6120086251669588
aF0.04127343537509744
ag4
(g8
S"FV\xfd\xdc\xc0'\xd2?"
p83
tp84
Rp85
aF0.9910362384823301
aF0.2949666868804056
ag81
aa(lp86
F0.9455798726779927
aF0.21136363653109924
ag4
(g8
S'\x02[\x12\x91\xf1\x9a\xa8?'
p87
tp88
Rp89
aF0.9910362384823301
aF0.2949666868804056
ag81
aa(lp90
F0.5386041726715383
aF0.0834052571554267
ag4
(g8
S'\xcd\xa1\xb4\xa8\x8a0\xcb?'
p91
tp92
Rp93
aF0.9910362384823301
aF0.2949666868804056
ag81
aa(lp94
F0.5853035370797284
aF0.2461616120655785
ag4
(g8
S'gQ4\xb3\x08\xce\xa6?'
p95
tp96
Rp97
aF0.9910362384823301
aF0.2949666868804056
ag81
aa(lp98
F0.7897238347945786
aF0.2688281012768986
ag4
(g8
S'\xb3\xc8\xf1\xbe\x0f\x81\xa7?'
p99
tp100
Rp101
aF0.9910362384823301
aF0.2949666868804056
ag81
aa(lp102
F0.6334428620796467
aF0.2804192516983497
ag4
(g8
S'\x90A"\xc7-&\xa7?'
p103
tp104
Rp105
aF0.9910362384823301
aF0.2949666868804056
ag81
aa(lp106
F0.6821329090648716
aF0.156675616995619
ag4
(g8
S'\x9fEBl\xd6>\xb4?'
p107
tp108
Rp109
aF0.9910362384823301
aF0.2949666868804056
ag81
aa(lp110
F0.7538951163004277
aF0.00863669509231313
ag4
(g8
S'\x8ckP\xdb\xfb\x12\xd3?'
p111
tp112
Rp113
aF0.9910362384823301
aF0.2949666868804056
ag81
aa(lp114
F0.712548913364363
aF0.194346347841746
ag4
(g8
S'Bh+SMM\xae?'
p115
tp116
Rp117
aF0.9910362384823301
aF0.2949666868804056
ag81
aa(lp118
F0.6783820228189378
aF0.2715575436593064
ag4
(g8
S'\xe6\xca\xadG\xe6Q\xa8?'
p119
tp120
Rp121
aF0.9910362384823301
aF0.2949666868804056
ag81
aa(lp122
F0.851435079898524
aF0.21283001183265596
ag4
(g8
S'\xc2\xf5\x95\xcd\x9a,\xa8?'
p123
tp124
Rp125
aF0.9910362384823301
aF0.2949666868804056
ag81
aa(lp126
F0.9839827098131484
aF0.02234218583744152
ag4
(g8
S'\x13\xd5\xa2\x95\x97\xc1\xd2?'
p127
tp128
Rp129
aF0.9910362384823301
aF0.2949666868804056
ag81
aa(lp130
F0.8093046773656061
aF0.1831888164918569
ag4
(g8
S'\xf5N\x9f[\x83\x13\xb0?'
p131
tp132
Rp133
aF0.9910362384823301
aF0.2949666868804056
ag81
aa(lp134
F0.7783018140645004
aF0.1967711986579978
ag4
(g8
S'\xa2\x92RO\xd8A\xac?'
p135
tp136
Rp137
aF0.9910362384823301
aF0.2949666868804056
ag81
aa(lp138
F0.8340406014456345
aF0.18825561822166129
ag4
(g8
S'kyf\x9dQ\x1c\xad?'
p139
tp140
Rp141
aF0.9910362384823301
aF0.2949666868804056
ag81
aa(lp142
F0.8443971558389524
aF0.2166799561097869
ag4
(g8
S'^\xf5<M\x83T\xa8?'
p143
tp144
Rp145
aF0.9910362384823301
aF0.2949666868804056
ag81
aa(lp146
F0.6543294941062952
aF0.11981208349332326
ag4
(g8
S"'j\xe1\xef\x97\x1d\xc1?"
p147
tp148
Rp149
aF0.9910362384823301
aF0.2949666868804056
ag81
aa(lp150
F0.9608351366991585
aF0.19397985889974592
ag4
(g8
S'\xa6Y\x8ep\r\x12\xac?'
p151
tp152
Rp153
aF0.9910362384823301
aF0.2949666868804056
ag81
aa(lp154
F0.6987175470959248
aF0.01779505230635835
ag4
(g8
S'\xf2\xbc\x87\xc8\xd3\x0f\xd3?'
p155
tp156
Rp157
aF0.9910362384823301
aF0.2949666868804056
ag81
aaaa(lp158
F61.56008696556091
aa.