(lp0
(lp1
(lp2
(lp3
F0.6470419063863859
aF0.1233774445789806
acnumpy.core.multiarray
scalar
p4
(cnumpy
dtype
p5
(S'f8'
p6
I0
I1
tp7
Rp8
(I3
S'<'
p9
NNNI-1
I-1
I0
tp10
bS'B\xbf\xe0\x167\xdb\xb6?'
p11
tp12
Rp13
aF0.6470419063863859
aF0.1233774445789806
ag13
aa(lp14
F0.964795229178953
aF0.04344554429154008
ag4
(g8
S'\x92Lt~\x9e%\xce?'
p15
tp16
Rp17
aF0.6470419063863859
aF0.1233774445789806
ag13
aa(lp18
F0.7550841749496033
aF0.02004600927742849
ag4
(g8
S'IL\x1cjUb\xd0?'
p19
tp20
Rp21
aF0.6470419063863859
aF0.1233774445789806
ag13
aa(lp22
F0.5753126752258984
aF0.08892746145688195
ag4
(g8
S'K\x83K\xca.b\xc3?'
p23
tp24
Rp25
aF0.6470419063863859
aF0.1233774445789806
ag13
aa(lp26
F0.8388650690464479
aF0.15535800882940412
ag4
(g8
S'\xa0\xa8b\x08Ab\xaf?'
p27
tp28
Rp29
aF0.8388650690464479
aF0.15535800882940412
ag29
aa(lp30
F0.7583637377882498
aF0.25332958111129156
ag4
(g8
S'\xb1\x92\xb7\xfc3\xa7\xa3?'
p31
tp32
Rp33
aF0.7583637377882498
aF0.25332958111129156
ag33
aa(lp34
F0.5471044122532106
aF0.13307734646290195
ag4
(g8
S'2\x86\x96\x9a\xfcT\xb4?'
p35
tp36
Rp37
aF0.7583637377882498
aF0.25332958111129156
ag33
aa(lp38
F0.8578769057801618
aF0.2190684340876984
ag4
(g8
S'\xbc\x14!\xady\xec\xa4?'
p39
tp40
Rp41
aF0.7583637377882498
aF0.25332958111129156
ag33
aa(lp42
F0.5138518860291029
aF0.11796851378924189
ag4
(g8
S'&\xea\xa3^\xde\x8a\xb7?'
p43
tp44
Rp45
aF0.7583637377882498
aF0.25332958111129156
ag33
aa(lp46
F0.8262634254292143
aF0.12577058832512536
ag4
(g8
S'\xae\x17\xc05\x7f\x1b\xb8?'
p47
tp48
Rp49
aF0.7583637377882498
aF0.25332958111129156
ag33
aa(lp50
F0.8728859143123096
aF0.23795560936038188
ag4
(g8
S'\xb6\ntK\x16 \xa4?'
p51
tp52
Rp53
aF0.7583637377882498
aF0.25332958111129156
ag33
aa(lp54
F0.6935494787549445
aF0.02016732234528292
ag4
(g8
S'+\x86\x82v\xb5P\xd0?'
p55
tp56
Rp57
aF0.7583637377882498
aF0.25332958111129156
ag33
aa(lp58
F0.6601198974395498
aF0.21203596864079527
ag4
(g8
S'\x96\xb7O/\xb0\xd0\xa5?'
p59
tp60
Rp61
aF0.7583637377882498
aF0.25332958111129156
ag33
aa(lp62
F0.8671484523139195
aF0.03787436760708822
ag4
(g8
S'E\xb5M0\xd5e\xce?'
p63
tp64
Rp65
aF0.7583637377882498
aF0.25332958111129156
ag33
aa(lp66
F0.5873974718713384
aF0.26038139260857573
ag4
(g8
S'\xe2@\xd5G-w\xa4?'
p67
tp68
Rp69
aF0.7583637377882498
aF0.25332958111129156
ag33
aa(lp70
F0.7446417039108608
aF0.14200454258105907
ag4
(g8
S'!\x05\xcer\xa5\x96\xb2?'
p71
tp72
Rp73
aF0.7583637377882498
aF0.25332958111129156
ag33
aa(lp74
F0.7383436865994184
aF0.09308829066104075
ag4
(g8
S'}\xa9\xb9\xfbIY\xc1?'
p75
tp76
Rp77
aF0.7583637377882498
aF0.25332958111129156
ag33
aa(lp78
F0.5785514362694419
aF0.14129712474725392
ag4
(g8
S'C_\xa1\x1a.\xbd\xb1?'
p79
tp80
Rp81
aF0.7583637377882498
aF0.25332958111129156
ag33
aa(lp82
F0.5913718753471324
aF0.24998736077328826
ag4
(g8
S'\xc1r\xe5\x19\xfd\xe6\xa1?'
p83
tp84
Rp85
aF0.5913718753471324
aF0.24998736077328826
ag85
aa(lp86
F0.7452187267999835
aF0.10589168435687417
ag4
(g8
S'0\xf6V\xa3\xa9\t\xbc?'
p87
tp88
Rp89
aF0.5913718753471324
aF0.24998736077328826
ag85
aa(lp90
F0.5845688769719127
aF0.2968933281955356
ag4
(g8
S'u~\x9aPD\x8a\xa1?'
p91
tp92
Rp93
aF0.5845688769719127
aF0.2968933281955356
ag93
aa(lp94
F0.577860166793809
aF0.21536260783598823
ag4
(g8
S'\x1b\xce\xf2c\xc6\x1a\xa5?'
p95
tp96
Rp97
aF0.5845688769719127
aF0.2968933281955356
ag93
aa(lp98
F0.7450533804860328
aF0.19724335293638295
ag4
(g8
S'\xdb\x8f\xd0d\x99\x08\xa7?'
p99
tp100
Rp101
aF0.5845688769719127
aF0.2968933281955356
ag93
aa(lp102
F0.8477551646997362
aF0.14567464886390316
ag4
(g8
S'\x18\n5\xe1\x80\xba\xb1?'
p103
tp104
Rp105
aF0.5845688769719127
aF0.2968933281955356
ag93
aa(lp106
F0.9869205290265753
aF0.16341527102395456
ag4
(g8
S'\xbb\xa0\x155\n\xf8\xab?'
p107
tp108
Rp109
aF0.5845688769719127
aF0.2968933281955356
ag93
aa(lp110
F0.7312771192803833
aF0.2940047122730682
ag4
(g8
S'\xf61\x9e\xbf\xe8\xfc\xa1?'
p111
tp112
Rp113
aF0.5845688769719127
aF0.2968933281955356
ag93
aa(lp114
F0.7064624883605511
aF0.008861688608213514
ag4
(g8
S'V\xa1s\x95\xac~\xd0?'
p115
tp116
Rp117
aF0.5845688769719127
aF0.2968933281955356
ag93
aa(lp118
F0.9998332234100501
aF0.10019488341546459
ag4
(g8
S'2*1AI\xea\xbf?'
p119
tp120
Rp121
aF0.5845688769719127
aF0.2968933281955356
ag93
aa(lp122
F0.7804977911657077
aF0.09253991718429906
ag4
(g8
S'\x93\xeb`\xa6\x1fy\xc2?'
p123
tp124
Rp125
aF0.5845688769719127
aF0.2968933281955356
ag93
aa(lp126
F0.7587219751909599
aF0.1476292500108741
ag4
(g8
S'\xbe\x88\xce\\\x0c!\xb0?'
p127
tp128
Rp129
aF0.5845688769719127
aF0.2968933281955356
ag93
aa(lp130
F0.6999143665667154
aF0.12108873658206304
ag4
(g8
S'Hk!_\xbf\xc7\xb7?'
p131
tp132
Rp133
aF0.5845688769719127
aF0.2968933281955356
ag93
aa(lp134
F0.581603073835887
aF0.19630662308436017
ag4
(g8
S'\x9d\xaa\xb4\xc2\xe7\x15\xa7?'
p135
tp136
Rp137
aF0.5845688769719127
aF0.2968933281955356
ag93
aa(lp138
F0.5593841581065887
aF0.14196936110362074
ag4
(g8
S"2\xcd'o#j\xb1?"
p139
tp140
Rp141
aF0.5845688769719127
aF0.2968933281955356
ag93
aa(lp142
F0.9533595437106861
aF0.08497591888298907
ag4
(g8
S'\xd6\x14\xb4\xe8\xedr\xc3?'
p143
tp144
Rp145
aF0.5845688769719127
aF0.2968933281955356
ag93
aa(lp146
F0.6808221727442775
aF0.07474296506820712
ag4
(g8
S'\x0e\xa7\x93b3\xd2\xc6?'
p147
tp148
Rp149
aF0.5845688769719127
aF0.2968933281955356
ag93
aa(lp150
F0.9317033030129442
aF0.009956381379783262
ag4
(g8
S'\\]aO\xaa\xa6\xd1?'
p151
tp152
Rp153
aF0.5845688769719127
aF0.2968933281955356
ag93
aaaa(lp154
(lp155
g4
(g8
S'\xd8ZO"f\x1b\x07@'
p156
tp157
Rp158
a(lp159
g4
(g8
S'\x83\xa7\xe0\xfc\x8a\xb3\x96?'
p160
tp161
Rp162
ag4
(g8
S'\xf2\xaf\x8d\xec\xa8\xa5\x95?'
p163
tp164
Rp165
ag4
(g8
S'<*\xfb|\x8e\xbc\xa2?'
p166
tp167
Rp168
ag4
(g8
S'\n\xd5^RL\xd9\xa2?'
p169
tp170
Rp171
ag4
(g8
S'\x98l\xf6\xd9\xcb\x9f\xa0?'
p172
tp173
Rp174
ag4
(g8
S'\xa9@\xceC\xe8\xb1\xa0?'
p175
tp176
Rp177
ag4
(g8
S'|d\xb2\xfeNl\xa9?'
p178
tp179
Rp180
ag4
(g8
S'\xae\xb4\xc4\n\xcc]\xa4?'
p181
tp182
Rp183
ag4
(g8
S'Y\xb0\rDZ]\x9a?'
p184
tp185
Rp186
ag4
(g8
S'^\x17\x9d\xce\xe7\xa2\x81?'
p187
tp188
Rp189
ag4
(g8
S'\xf2\xc00\xf3\x0f7\x9b?'
p190
tp191
Rp192
ag4
(g8
S'w\xbe\x89\x83V,\xa2?'
p193
tp194
Rp195
ag4
(g8
S'u\x11O\xc94n\xa6?'
p196
tp197
Rp198
ag4
(g8
S'B\xd2|\xd1\xd7\x1e\xb0?'
p199
tp200
Rp201
ag4
(g8
S'n,F\x15\xb2\\\xa1?'
p202
tp203
Rp204
ag4
(g8
S'\x1f\xc4\xe4\xfc\xe3\xc3\x9f?'
p205
tp206
Rp207
ag4
(g8
S'\xe6f\xb3\xbf8\x89\xa7?'
p208
tp209
Rp210
ag4
(g8
S'P\xeb\xa2\xd8]I\x95?'
p211
tp212
Rp213
ag4
(g8
S'E\xa7fD\xdd;\x9c?'
p214
tp215
Rp216
ag4
(g8
S'\x04\xe0C\x11\x07\xb7\x9b?'
p217
tp218
Rp219
ag4
(g8
S'\x8e%\x0f\xcd\xfd\xdc\x8d?'
p220
tp221
Rp222
ag4
(g8
S'R\x90\xf68,\xb6\x91?'
p223
tp224
Rp225
ag4
(g8
S'WZ\xd5p\x8c\xda\xaa?'
p226
tp227
Rp228
ag4
(g8
S'y\xb6\x8bD\xc8\x05\xb6?'
p229
tp230
Rp231
ag4
(g8
S'_\xc9\xea<\x95\xe4\x97?'
p232
tp233
Rp234
ag4
(g8
S'{c\xbbx\xedT\xac?'
p235
tp236
Rp237
ag4
(g8
S'\xc7m\xb6\x18\xffw\xa0?'
p238
tp239
Rp240
ag4
(g8
S'\xdaS\x88`\x870\xa8?'
p241
tp242
Rp243
ag4
(g8
S'\x9f\x00\xeaA)0\xa6?'
p244
tp245
Rp246
ag4
(g8
S"\x98&G\x91'\x9f\xa2?"
p247
tp248
Rp249
ag4
(g8
S' \x00j\xc0\r\x80\xa5?'
p250
tp251
Rp252
ag4
(g8
S'\x10\x11\xe5\xaeG\x02\x99?'
p253
tp254
Rp255
ag4
(g8
S'\xea\nWkF\xed\xa5?'
p256
tp257
Rp258
ag4
(g8
S'/Lm\xcb[@\x97?'
p259
tp260
Rp261
ag4
(g8
S'\xa9`\xa84\x99\x8f\xa9?'
p262
tp263
Rp264
ag4
(g8
S'\x8eCb\xdb\x91r\xa0?'
p265
tp266
Rp267
ag4
(g8
S'\xdf\xcd{W\xe7\xdbw?'
p268
tp269
Rp270
ag4
(g8
S'`\x9f\x9c\x1aE\xac\xa6?'
p271
tp272
Rp273
ag4
(g8
S'\xb0?\xed\xbc>~\xaa?'
p274
tp275
Rp276
ag4
(g8
S'\xc8\xfdG\x7f\xa1\x9f\xa8?'
p277
tp278
Rp279
ag4
(g8
S'N,\x97\xf7\x13\x9d\xb2?'
p280
tp281
Rp282
ag4
(g8
S'\t\x1a\x91\x06\xc6A\x99?'
p283
tp284
Rp285
ag4
(g8
S'\xd9\xa7\xf6JB\xa6\xac?'
p286
tp287
Rp288
ag4
(g8
S"\xff'\xb7MH\xe2\xad?"
p289
tp290
Rp291
ag4
(g8
S'\x17\tzOYy\xa3?'
p292
tp293
Rp294
ag4
(g8
S'\x14R\x7f\xec\xc6S\x9a?'
p295
tp296
Rp297
ag4
(g8
S'\x80\xec\xbb\t\xb1\xc7\xaa?'
p298
tp299
Rp300
ag4
(g8
S'c\xce\xa3\xff\xa1\x80\x97?'
p301
tp302
Rp303
ag4
(g8
S'v\xd2\xd0\x7f\xb4M\xa1?'
p304
tp305
Rp306
ag4
(g8
S'`\xd4\x93Fpq\x8e?'
p307
tp308
Rp309
ag4
(g8
S'\no:\xef\xab\x12\xa5?'
p310
tp311
Rp312
ag4
(g8
S'\xd6\xacI\x16q\x9e\x96?'
p313
tp314
Rp315
ag4
(g8
S'Y\xcd\xcc\xe5>\x13\xae?'
p316
tp317
Rp318
ag4
(g8
S'\x1d\x89\xc4\xd79\xa0\xa1?'
p319
tp320
Rp321
ag4
(g8
S'\xbf\xd3\xe8\xb2\xdb7\x84?'
p322
tp323
Rp324
ag4
(g8
S'W\xb8\x9e\xb6\x16\x7f\x9b?'
p325
tp326
Rp327
ag4
(g8
S'0=\xeaq$k\x92?'
p328
tp329
Rp330
ag4
(g8
S'D&Zm\x15\xc1\xa8?'
p331
tp332
Rp333
ag4
(g8
S'C\xad\xa6\x93\xac\xc1\xae?'
p334
tp335
Rp336
ag4
(g8
S'\xef\x86\xda\xdcQ=\x90?'
p337
tp338
Rp339
ag4
(g8
S'\xb7\xbd\xce]\n\xe8\xa3?'
p340
tp341
Rp342
ag4
(g8
S'\xb9\x19!&\x86D\x92?'
p343
tp344
Rp345
ag4
(g8
S'\xbbW\xcd9\xbb\xc2\xaf?'
p346
tp347
Rp348
ag4
(g8
S'\x16\xc9?7\x85\x95\x90?'
p349
tp350
Rp351
ag4
(g8
S')l\xafp\n\x8f\xa6?'
p352
tp353
Rp354
ag4
(g8
S'\xc8\xad\xd6\x1bq\x9e\xab?'
p355
tp356
Rp357
ag4
(g8
S'\xe1\xb3\xbd\xaf\xf9\x84\x81?'
p358
tp359
Rp360
ag4
(g8
S'\xd5Q\r%\x8cO\xad?'
p361
tp362
Rp363
ag4
(g8
S'\xd6W\x8d\xcdT\xab\x9f?'
p364
tp365
Rp366
ag4
(g8
S'1j%V\x89\xf4\x84?'
p367
tp368
Rp369
ag4
(g8
S'\xc6\t\xbcNa\xf5\xa4?'
p370
tp371
Rp372
ag4
(g8
S'$\xf4y6\xc4\x07\xa8?'
p373
tp374
Rp375
ag4
(g8
S'\xeaf\x19\xa7C\x18\x83?'
p376
tp377
Rp378
ag4
(g8
S'\xb6\xd20\x991F\xa3?'
p379
tp380
Rp381
ag4
(g8
S'\xee\xf9\x13oq\xc3\x91?'
p382
tp383
Rp384
ag4
(g8
S'g\x89\xcb.\xf6\xb6\xa8?'
p385
tp386
Rp387
ag4
(g8
S'l{\xfb\xa5\x01j\xaa?'
p388
tp389
Rp390
ag4
(g8
S'%\xbf\xd4\xddU\x95\x99?'
p391
tp392
Rp393
ag4
(g8
S'\x8cD\xbe\xb4\xb6#\xb0?'
p394
tp395
Rp396
ag4
(g8
S'O\x84\x97\xf5V\xe2\xa4?'
p397
tp398
Rp399
aaaa(lp400
F60.151325941085815
aa.