(lp0
(lp1
(lp2
(lp3
F0.9004503973363951
aF0.2580733696102076
acnumpy.core.multiarray
scalar
p4
(cnumpy
dtype
p5
(S'f8'
p6
I0
I1
tp7
Rp8
(I3
S'<'
p9
NNNI-1
I-1
I0
tp10
bS'\x9b\xf2K\xdac\x1b\xae?'
p11
tp12
Rp13
aF0.9004503973363951
aF0.2580733696102076
ag13
aa(lp14
F0.7919933019680352
aF0.06980073874838627
ag4
(g8
S'\x93g\x03\x87\xaf<\xda?'
p15
tp16
Rp17
aF0.9004503973363951
aF0.2580733696102076
ag13
aa(lp18
F0.8762463351579204
aF0.05138349436678989
ag4
(g8
S'\x18\x1d\x02x\x15@\xd2?'
p19
tp20
Rp21
aF0.9004503973363951
aF0.2580733696102076
ag13
aa(lp22
F0.6266493301877023
aF0.17612275545157696
ag4
(g8
S'\np\xa2\xe2\x8a\xb0\xbe?'
p23
tp24
Rp25
aF0.9004503973363951
aF0.2580733696102076
ag13
aa(lp26
F0.8263241258363168
aF0.10671703270985501
ag4
(g8
S'\xc2\x0f\\\xc5\n\xed\xd2?'
p27
tp28
Rp29
aF0.9004503973363951
aF0.2580733696102076
ag13
aa(lp30
F0.597578722470003
aF0.29965418447104675
ag4
(g8
S'\x12\xc1\xf5\x029\xf0\xa4?'
p31
tp32
Rp33
aF0.597578722470003
aF0.29965418447104675
ag33
aa(lp34
F0.979342417578008
aF0.21130166596526595
ag4
(g8
S'46\xe9V\x15\xe8\xb1?'
p35
tp36
Rp37
aF0.597578722470003
aF0.29965418447104675
ag33
aa(lp38
F0.8969791385040744
aF0.16762511725388327
ag4
(g8
S'\xa27F\xb5\x86\x81\xbe?'
p39
tp40
Rp41
aF0.597578722470003
aF0.29965418447104675
ag33
aa(lp42
F0.6989126406837272
aF0.06934310908898451
ag4
(g8
S'\xda\xa3I\xac\xa3\xb5\xd1?'
p43
tp44
Rp45
aF0.597578722470003
aF0.29965418447104675
ag33
aa(lp46
F0.8804985990204768
aF0.05461439683582487
ag4
(g8
S'vj\xb0P\xe8\xc2\xd1?'
p47
tp48
Rp49
aF0.597578722470003
aF0.29965418447104675
ag33
aa(lp50
F0.6532267324076029
aF0.2497260038993995
ag4
(g8
S'\xc5f\x18\xe0c\x1d\xae?'
p51
tp52
Rp53
aF0.597578722470003
aF0.29965418447104675
ag33
aa(lp54
F0.7665084776394704
aF0.18817968869873156
ag4
(g8
S'\x8av~o\xa4z\xb8?'
p55
tp56
Rp57
aF0.597578722470003
aF0.29965418447104675
ag33
aa(lp58
F0.8374516219203868
aF0.06474512285335352
ag4
(g8
S'\xa3oCP\xae\xf7\xd4?'
p59
tp60
Rp61
aF0.597578722470003
aF0.29965418447104675
ag33
aa(lp62
F0.6621239261568621
aF0.23332202197125212
ag4
(g8
S'\xad\x94bt\xe3L\xad?'
p63
tp64
Rp65
aF0.597578722470003
aF0.29965418447104675
ag33
aa(lp66
F0.7186212389162925
aF0.2823575294762115
ag4
(g8
S'\xa6\xe0\x9b\xc9fH\xb0?'
p67
tp68
Rp69
aF0.597578722470003
aF0.29965418447104675
ag33
aa(lp70
F0.6802325711164716
aF0.23036277344819628
ag4
(g8
S'\xae\xf9u_\x82\x13\xae?'
p71
tp72
Rp73
aF0.597578722470003
aF0.29965418447104675
ag33
aa(lp74
F0.7694071767656809
aF0.0936231321350525
ag4
(g8
S'\xdc\x15\xe5\x06\xa9f\xd2?'
p75
tp76
Rp77
aF0.597578722470003
aF0.29965418447104675
ag33
aa(lp78
F0.9935107619065666
aF0.23600912511755442
ag4
(g8
S'(\x12\x08\xa9\x1d"\xad?'
p79
tp80
Rp81
aF0.597578722470003
aF0.29965418447104675
ag33
aa(lp82
F0.8640873898184201
aF0.1720600434092105
ag4
(g8
S'\x1f\xcfo\xec\xb1\xf8\xc0?'
p83
tp84
Rp85
aF0.597578722470003
aF0.29965418447104675
ag33
aa(lp86
F0.670344233880237
aF0.25447532620915675
ag4
(g8
S'\xdd\xad\xde\xfa\x02=\xa9?'
p87
tp88
Rp89
aF0.597578722470003
aF0.29965418447104675
ag33
aa(lp90
F0.9944512820751104
aF0.25381223275891995
ag4
(g8
S'm\xb7l\xcc\xc9\xdb\xac?'
p91
tp92
Rp93
aF0.597578722470003
aF0.29965418447104675
ag33
aa(lp94
F0.8499703241627435
aF0.03775128195400479
ag4
(g8
S'\xa4\x87\x9fP|\x07\xd3?'
p95
tp96
Rp97
aF0.597578722470003
aF0.29965418447104675
ag33
aa(lp98
F0.5935241992427429
aF0.12977702808495165
ag4
(g8
S'\xc6\x85|\x9b;L\xc5?'
p99
tp100
Rp101
aF0.597578722470003
aF0.29965418447104675
ag33
aa(lp102
F0.7435601425692508
aF0.07437708074490311
ag4
(g8
S'\x16\t\xd3\xdd\x9ey\xd4?'
p103
tp104
Rp105
aF0.597578722470003
aF0.29965418447104675
ag33
aa(lp106
F0.5286927326748613
aF0.18345633557655758
ag4
(g8
S'\xbb\xae1w7\x81\xb4?'
p107
tp108
Rp109
aF0.597578722470003
aF0.29965418447104675
ag33
aa(lp110
F0.62904148878498
aF0.02657692655323138
ag4
(g8
S'8\x1b?\x11\xb1\xa8\xd4?'
p111
tp112
Rp113
aF0.597578722470003
aF0.29965418447104675
ag33
aa(lp114
F0.5000640949273545
aF0.061991117976814024
ag4
(g8
S'\xc1:d\x8e\t\x1b\xd1?'
p115
tp116
Rp117
aF0.597578722470003
aF0.29965418447104675
ag33
aa(lp118
F0.8706867586892908
aF0.09626080296157705
ag4
(g8
S'J:/P\xba\x0e\xd4?'
p119
tp120
Rp121
aF0.597578722470003
aF0.29965418447104675
ag33
aa(lp122
F0.7441068123621062
aF0.2985335797724487
ag4
(g8
S'\x038\x11\xae_X\xa8?'
p123
tp124
Rp125
aF0.597578722470003
aF0.29965418447104675
ag33
aa(lp126
F0.9885364099211482
aF0.23176569484464749
ag4
(g8
S'_\xbb\x9c]RE\xb1?'
p127
tp128
Rp129
aF0.597578722470003
aF0.29965418447104675
ag33
aa(lp130
F0.9197503868136307
aF0.28386651977977634
ag4
(g8
S'v\x8e\xeb\\w\xab\xa9?'
p131
tp132
Rp133
aF0.597578722470003
aF0.29965418447104675
ag33
aa(lp134
F0.9012406488075364
aF0.017465851108354
ag4
(g8
S'm\xad\x19[<U\xd6?'
p135
tp136
Rp137
aF0.597578722470003
aF0.29965418447104675
ag33
aa(lp138
F0.5743659964293497
aF0.053039953820638086
ag4
(g8
S'\xf5%\xbf\xd7r\xbc\xd5?'
p139
tp140
Rp141
aF0.597578722470003
aF0.29965418447104675
ag33
aaaa(lp142
(lp143
g4
(g8
S'SD5a\x02\xe5\x0b@'
p144
tp145
Rp146
a(lp147
g4
(g8
S'\x88\xaa\r \xa7\xfa\xa2?'
p148
tp149
Rp150
ag4
(g8
S'=\x19\xc3\xa6\xef0\x94?'
p151
tp152
Rp153
ag4
(g8
S'\xf6\x0e\xa2\x17PV\x9f?'
p154
tp155
Rp156
ag4
(g8
S'\x7f\xf2\x98\xd6\xe8s\xa0?'
p157
tp158
Rp159
ag4
(g8
S'\x89x\xa2~\xc2Y\xa3?'
p160
tp161
Rp162
ag4
(g8
S'R\xbd\xde\xfa\xda\x10\x9d?'
p163
tp164
Rp165
ag4
(g8
S'hm\xab\xfc!\x18\xad?'
p166
tp167
Rp168
ag4
(g8
S'Jot1\x1d\xd9\xaf?'
p169
tp170
Rp171
ag4
(g8
S"\x8f*\x19\x8c\xf2'\xa9?"
p172
tp173
Rp174
ag4
(g8
S'W\x1e(\xea\x8eF\x84?'
p175
tp176
Rp177
ag4
(g8
S'\xecI\xd8)\xae:\xa8?'
p178
tp179
Rp180
ag4
(g8
S'\n\xbdI[\xa1\xb7\xa2?'
p181
tp182
Rp183
ag4
(g8
S'\xad+\x9b\xf1\x16\x8f\xa8?'
p184
tp185
Rp186
ag4
(g8
S'a`\xe43J\xb4\xac?'
p187
tp188
Rp189
ag4
(g8
S't\xbb\x81Z\x12\xa3\xa6?'
p190
tp191
Rp192
ag4
(g8
S']s\x84\xf6\x06\xba\xa1?'
p193
tp194
Rp195
ag4
(g8
S'ei\x89\x81W\xf4\xa8?'
p196
tp197
Rp198
ag4
(g8
S'\xe0\x91e\x84\xd4x\x93?'
p199
tp200
Rp201
ag4
(g8
S'\xd2\x98-a\xe6\x8c\xa3?'
p202
tp203
Rp204
ag4
(g8
S'T\x82\xdd\xbe\x1d\xa5\x97?'
p205
tp206
Rp207
ag4
(g8
S'\xa87\x96\xc1y\xf2\x97?'
p208
tp209
Rp210
ag4
(g8
S'\xc3\xc2V\xfd\t\xfa\x93?'
p211
tp212
Rp213
ag4
(g8
S'\x8a=\xfd\xfa\xf80\xa8?'
p214
tp215
Rp216
ag4
(g8
S's[\xba\x88J9\xac?'
p217
tp218
Rp219
ag4
(g8
S'\xaa\r\nrA\xaa\xa2?'
p220
tp221
Rp222
ag4
(g8
S'hq\x02V~m\xb0?'
p223
tp224
Rp225
ag4
(g8
S'p\x1c@\xaf\x9f4\xad?'
p226
tp227
Rp228
ag4
(g8
S'\xd9A5\x1b~]\xaa?'
p229
tp230
Rp231
ag4
(g8
S'\x14\x8c\xaf\xd4a\x0b\xb0?'
p232
tp233
Rp234
ag4
(g8
S'\x80]\xea&\xd4d\x9c?'
p235
tp236
Rp237
ag4
(g8
S'\xfb4\x16t7\x94\xa5?'
p238
tp239
Rp240
ag4
(g8
S'Ul\x88x\xa3(\xa1?'
p241
tp242
Rp243
ag4
(g8
S'\xf0G"<\xa9\x90\xa9?'
p244
tp245
Rp246
ag4
(g8
S'4\xe5J;"T\x97?'
p247
tp248
Rp249
ag4
(g8
S'n\xed\x8b\xbd\xa7]\xaa?'
p250
tp251
Rp252
ag4
(g8
S'\xaf\xc2?\xb6\x89i\xa6?'
p253
tp254
Rp255
ag4
(g8
S'\xa5\xc2\xc8\xb8\xaaUv?'
p256
tp257
Rp258
ag4
(g8
S'L$%9\xe6\xf3\xad?'
p259
tp260
Rp261
ag4
(g8
S'W\xb4&\\\x97-\xa9?'
p262
tp263
Rp264
ag4
(g8
S'\xfd\xe8\xb0\x1dV\x9e\xa7?'
p265
tp266
Rp267
ag4
(g8
S'B\xb6\xdf\x076\xe7\xb7?'
p268
tp269
Rp270
ag4
(g8
S'\x14b\x80\x17U\xd6\xb0?'
p271
tp272
Rp273
ag4
(g8
S'\xf21\t\xce\xf8;\xb1?'
p274
tp275
Rp276
ag4
(g8
S'\xb6gd\\\x8d\xf8\xb2?'
p277
tp278
Rp279
ag4
(g8
S"\x7f'\x82^\xbf\xa8\xac?"
p280
tp281
Rp282
ag4
(g8
S'\xe1u\x83\xce{\xdc\x9b?'
p283
tp284
Rp285
ag4
(g8
S'\xee_\xfe\xb0{\x13\xb1?'
p286
tp287
Rp288
ag4
(g8
S'\x1e:\xbfE\x10\xe1\xa6?'
p289
tp290
Rp291
ag4
(g8
S'c\x16`Wt\x17\xa1?'
p292
tp293
Rp294
ag4
(g8
S'\xae\x8cR\xf6\xadZ\x8c?'
p295
tp296
Rp297
ag4
(g8
S'\xf8 \x1a\xe6Q_\xa4?'
p298
tp299
Rp300
ag4
(g8
S'\xeaG \x86V!\x96?'
p301
tp302
Rp303
ag4
(g8
S'$\x88]\xa2|\xdb\xad?'
p304
tp305
Rp306
ag4
(g8
S'\xdf\xa2\x06C^\x13\xa0?'
p307
tp308
Rp309
ag4
(g8
S'\x7fq\x88\xef\x8cD\x88?'
p310
tp311
Rp312
ag4
(g8
S'\xa8"\x15@\x1dJ\xa5?'
p313
tp314
Rp315
ag4
(g8
S'\x92\xd6\x97\xc7\xe6\x17\xa8?'
p316
tp317
Rp318
ag4
(g8
S'\x06\xce\x08I\xd62\xb0?'
p319
tp320
Rp321
ag4
(g8
S'H\x0b\x8b\x93\xf1E\xba?'
p322
tp323
Rp324
ag4
(g8
S'-\x94`I\xa1\x92\x95?'
p325
tp326
Rp327
ag4
(g8
S'\xf1\xe2G\t\xf5Z\xa2?'
p328
tp329
Rp330
ag4
(g8
S'\x1e\x96\xfc\xd9k\xf8\x92?'
p331
tp332
Rp333
ag4
(g8
S'^d\xa7\x004{\xad?'
p334
tp335
Rp336
ag4
(g8
S'\xee\xd7Y\xd1^+\x95?'
p337
tp338
Rp339
ag4
(g8
S'\x8ey\x1f@\xfd4\xa5?'
p340
tp341
Rp342
ag4
(g8
S'\x95M\x07=A5\xac?'
p343
tp344
Rp345
ag4
(g8
S'\x08V\xb3\xa0\x19v\xa5?'
p346
tp347
Rp348
ag4
(g8
S'\xb2^\xe0E\xd8?\xc1?'
p349
tp350
Rp351
ag4
(g8
S'\\\xa99nN\x8c\xa1?'
p352
tp353
Rp354
ag4
(g8
S'\x14\xa0\xb1\x13\x12\t\xa4?'
p355
tp356
Rp357
ag4
(g8
S'\x9b\x85\x97`\x1f\xc5\xa0?'
p358
tp359
Rp360
ag4
(g8
S' \xe5#\x8d\xd1w\xa6?'
p361
tp362
Rp363
ag4
(g8
S"'\x17\xa3`\x95m\x87?"
p364
tp365
Rp366
ag4
(g8
S'\xd0\x99\xf3<I\x1c\xab?'
p367
tp368
Rp369
ag4
(g8
S'\x8ab\xcd\xa2\x82v\x9c?'
p370
tp371
Rp372
ag4
(g8
S'\x1f\x01\xea\x10 \x97\xa9?'
p373
tp374
Rp375
ag4
(g8
S's\xf2\x07\xed`*\xab?'
p376
tp377
Rp378
ag4
(g8
S'\x7f\xd2a\xde\xaf\x16\xa1?'
p379
tp380
Rp381
ag4
(g8
S')\xf4\xcbP\xa2\xf0\xb2?'
p382
tp383
Rp384
ag4
(g8
S'\xdb\x18\xc3\xca]\x8f\xa4?'
p385
tp386
Rp387
aag4
(g8
S'\x00\x14np\x05:\xa0?'
p388
tp389
Rp390
ag4
(g8
S'\x05N\xf9Vh\xfa$@'
p391
tp392
Rp393
aaa(lp394
F61.28828477859497
aa.